; Function Attrs: mustprogress uwtable
define hidden void @_ZNK2cv3ccm13AdobeRGBBase_7toLFuncERNS_3MatE(ptr dead_on_unwind noalias writable sret(%"class.cv::Mat") align 8 %0, ptr noundef nonnull align 8 dereferenceable(448) %1, ptr noundef nonnull align 8 dereferenceable(96) %2) unnamed_addr #3 align 2 personality ptr @__gxx_personality_v0 {
  %4 = alloca %"class.cv::Mat", align 8
  %5 = getelementptr inbounds nuw i8, ptr %1, i64 440
  call void @_ZN2cv3MatC1Ev(ptr noundef nonnull align 8 dereferenceable(96) %4) #35
  invoke void @_ZN2cv3ccm15gammaCorrectionERKNS_3MatERKdS1_(ptr dead_on_unwind writable sret(%"class.cv::Mat") align 8 %0, ptr noundef nonnull align 8 dereferenceable(96) %2, ptr noundef nonnull align 8 dereferenceable(8) %5, ptr noundef nonnull %4)
          to label %6 unwind label %7

6:                                                ; preds = %3
  call void @_ZN2cv3MatD1Ev(ptr noundef nonnull align 8 dereferenceable(96) %4) #35
  ret void

7:                                                ; preds = %3
  %8 = landingpad { ptr, i32 }
          cleanup
  call void @_ZN2cv3MatD1Ev(ptr noundef nonnull align 8 dereferenceable(96) %4) #35
  resume { ptr, i32 } %8
}